; Function Attrs: null_pointer_is_valid sspstrong uwtable
define internal noundef ptr @copy_someip_parameter_enum_cb(ptr noundef returned writeonly captures(ret: address, provenance) initializes((0, 4), (8, 40)) %0, ptr noundef readonly captures(none) %1, i64 %2) #0 {
  %4 = load i32, ptr %1, align 8
  store i32 %4, ptr %0, align 8
  %5 = getelementptr inbounds nuw i8, ptr %1, i64 8
  %6 = load ptr, ptr %5, align 8
  %.not = icmp eq ptr %6, null
  br i1 %.not, label %9, label %7

7:                                                ; preds = %3
  %8 = tail call noalias ptr @g_strdup(ptr noundef nonnull %6)
  br label %9

9:                                                ; preds = %3, %7
  %.sink = phi ptr [ %8, %7 ], [ null, %3 ]
  %10 = getelementptr inbounds nuw i8, ptr %0, i64 8
  store ptr %.sink, ptr %10, align 8
  %11 = getelementptr inbounds nuw i8, ptr %1, i64 16
  %12 = load i32, ptr %11, align 8
  %13 = getelementptr inbounds nuw i8, ptr %0, i64 16
  store i32 %12, ptr %13, align 8
  %14 = getelementptr inbounds nuw i8, ptr %1, i64 20
  %15 = load i32, ptr %14, align 4
  %16 = getelementptr inbounds nuw i8, ptr %0, i64 20
  store i32 %15, ptr %16, align 4
  %17 = getelementptr inbounds nuw i8, ptr %1, i64 24
  %18 = load i32, ptr %17, align 8
  %19 = getelementptr inbounds nuw i8, ptr %0, i64 24
  store i32 %18, ptr %19, align 8
  %20 = getelementptr inbounds nuw i8, ptr %1, i64 28
  %21 = load i32, ptr %20, align 4
  %22 = getelementptr inbounds nuw i8, ptr %0, i64 28
  store i32 %21, ptr %22, align 4
  %23 = getelementptr inbounds nuw i8, ptr %1, i64 32
  %24 = load ptr, ptr %23, align 8
  %.not22 = icmp eq ptr %24, null
  br i1 %.not22, label %27, label %25

25:                                               ; preds = %9
  %26 = tail call noalias ptr @g_strdup(ptr noundef nonnull %24)
  br label %27

27:                                               ; preds = %9, %25
  %.sink23 = phi ptr [ %26, %25 ], [ null, %9 ]
  %28 = getelementptr inbounds nuw i8, ptr %0, i64 32
  store ptr %.sink23, ptr %28, align 8
  ret ptr %0
}